target datalayout = "e-m:e-p270:32:32-p271:32:32-p272:64:64-i64:64-i128:128-f80:128-n8:16:32:64-S128"
target triple = "x86_64-unknown-linux-gnu"

%"class.v8::IndirectHandleBase" = type { ptr }
%"class.v8::Global" = type { %"class.v8::PersistentBase" }
%"class.v8::PersistentBase" = type { %"class.v8::IndirectHandleBase" }
%"class.v8::Global.0" = type { %"class.v8::PersistentBase.1" }
%"class.v8::PersistentBase.1" = type { %"class.v8::IndirectHandleBase" }
%"class.v8impl::RefTracker" = type { ptr, ptr, ptr }
%"class.std::unordered_set" = type { %"class.std::_Hashtable" }
%"class.std::_Hashtable" = type { ptr, i64, %"struct.std::__detail::_Hash_node_base", i64, %"struct.std::__detail::_Prime_rehash_policy", ptr }
%"struct.std::__detail::_Hash_node_base" = type { ptr }
%"struct.std::__detail::_Prime_rehash_policy" = type { float, i64 }
%struct.napi_extended_error_info = type { ptr, ptr, i32, i32 }
%struct.napi_env__ = type <{ ptr, ptr, %"class.v8::Global", %"class.v8::Global.0", %"class.v8impl::RefTracker", %"class.v8impl::RefTracker", %"class.std::unordered_set", %struct.napi_extended_error_info, i32, i32, i32, [4 x i8], ptr, i32, i8, [3 x i8] }>
%"class.v8::Local.275" = type { %"class.v8::LocalBase.276" }
%"class.v8::LocalBase.276" = type { %"class.v8::IndirectHandleBase" }
%"class.v8::Local.277" = type { %"class.v8::LocalBase.278" }
%"class.v8::LocalBase.278" = type { %"class.v8::IndirectHandleBase" }

; Function Attrs: mustprogress nounwind uwtable
define dso_local void @_ZN15node_napi_env__23trigger_fatal_exceptionEN2v85LocalINS0_5ValueEEE(ptr noundef nonnull align 8 dereferenceable(226) %this, ptr %local_err.coerce) #4 align 2 {
entry:
  %local_err = alloca %"class.v8::Local.275", align 8
  %this.addr = alloca ptr, align 8
  %local_msg = alloca %"class.v8::Local.277", align 8
  %agg.tmp = alloca %"class.v8::Local.275", align 8
  %agg.tmp11 = alloca %"class.v8::Local.275", align 8
  %agg.tmp12 = alloca %"class.v8::Local.277", align 8
  %coerce.dive = getelementptr inbounds %"class.v8::Local.275", ptr %local_err, i32 0, i32 0
  %coerce.dive1 = getelementptr inbounds %"class.v8::LocalBase.276", ptr %coerce.dive, i32 0, i32 0
  %coerce.dive2 = getelementptr inbounds %"class.v8::IndirectHandleBase", ptr %coerce.dive1, i32 0, i32 0
  store ptr %local_err.coerce, ptr %coerce.dive2, align 8
  store ptr %this, ptr %this.addr, align 8
  %this3 = load ptr, ptr %this.addr, align 8
  %isolate = getelementptr inbounds %struct.napi_env__, ptr %this3, i32 0, i32 1
  %0 = load ptr, ptr %isolate, align 8
  call void @llvm.memcpy.p0.p0.i64(ptr align 8 %agg.tmp, ptr align 8 %local_err, i64 8, i1 false)
  %coerce.dive4 = getelementptr inbounds %"class.v8::Local.275", ptr %agg.tmp, i32 0, i32 0
  %coerce.dive5 = getelementptr inbounds %"class.v8::LocalBase.276", ptr %coerce.dive4, i32 0, i32 0
  %coerce.dive6 = getelementptr inbounds %"class.v8::IndirectHandleBase", ptr %coerce.dive5, i32 0, i32 0
  %1 = load ptr, ptr %coerce.dive6, align 8
  %call = call ptr @_ZN2v89Exception13CreateMessageEPNS_7IsolateENS_5LocalINS_5ValueEEE(ptr noundef %0, ptr %1)
  %coerce.dive7 = getelementptr inbounds %"class.v8::Local.277", ptr %local_msg, i32 0, i32 0
  %coerce.dive8 = getelementptr inbounds %"class.v8::LocalBase.278", ptr %coerce.dive7, i32 0, i32 0
  %coerce.dive9 = getelementptr inbounds %"class.v8::IndirectHandleBase", ptr %coerce.dive8, i32 0, i32 0
  store ptr %call, ptr %coerce.dive9, align 8
  %isolate10 = getelementptr inbounds %struct.napi_env__, ptr %this3, i32 0, i32 1
  %2 = load ptr, ptr %isolate10, align 8
  call void @llvm.memcpy.p0.p0.i64(ptr align 8 %agg.tmp11, ptr align 8 %local_err, i64 8, i1 false)
  call void @llvm.memcpy.p0.p0.i64(ptr align 8 %agg.tmp12, ptr align 8 %local_msg, i64 8, i1 false)
  %coerce.dive13 = getelementptr inbounds %"class.v8::Local.275", ptr %agg.tmp11, i32 0, i32 0
  %coerce.dive14 = getelementptr inbounds %"class.v8::LocalBase.276", ptr %coerce.dive13, i32 0, i32 0
  %coerce.dive15 = getelementptr inbounds %"class.v8::IndirectHandleBase", ptr %coerce.dive14, i32 0, i32 0
  %3 = load ptr, ptr %coerce.dive15, align 8
  %coerce.dive16 = getelementptr inbounds %"class.v8::Local.277", ptr %agg.tmp12, i32 0, i32 0
  %coerce.dive17 = getelementptr inbounds %"class.v8::LocalBase.278", ptr %coerce.dive16, i32 0, i32 0
  %coerce.dive18 = getelementptr inbounds %"class.v8::IndirectHandleBase", ptr %coerce.dive17, i32 0, i32 0
  %4 = load ptr, ptr %coerce.dive18, align 8
  call void @_ZN4node6errors24TriggerUncaughtExceptionEPN2v87IsolateENS1_5LocalINS1_5ValueEEENS4_INS1_7MessageEEEb(ptr noundef %2, ptr %3, ptr %4, i1 noundef zeroext false)
  ret void
}