; Function Attrs: mustprogress nounwind uwtable
define dso_local void @_ZN15node_napi_env__23trigger_fatal_exceptionEN2v85LocalINS0_5ValueEEE(ptr nocapture noundef nonnull readonly align 8 dereferenceable(226) %this, ptr %local_err.coerce) local_unnamed_addr #3 align 2 {
entry:
  %isolate = getelementptr inbounds i8, ptr %this, i64 8
  %0 = load ptr, ptr %isolate, align 8
  %call = tail call ptr @_ZN2v89Exception13CreateMessageEPNS_7IsolateENS_5LocalINS_5ValueEEE(ptr noundef %0, ptr %local_err.coerce) #21
  %1 = load ptr, ptr %isolate, align 8
  tail call void @_ZN4node6errors24TriggerUncaughtExceptionEPN2v87IsolateENS1_5LocalINS1_5ValueEEENS4_INS1_7MessageEEEb(ptr noundef %1, ptr %local_err.coerce, ptr %call, i1 noundef zeroext false) #21
  ret void
}